target datalayout = "e-m:e-p270:32:32-p271:32:32-p272:64:64-i64:64-i128:128-f80:128-n8:16:32:64-S128"
target triple = "x86_64-pc-linux-gnu"

%struct.AVFilterContext = type { ptr, ptr, ptr, ptr, ptr, i32, ptr, ptr, i32, ptr, ptr, i32, i32, ptr, ptr, ptr, ptr, i32, ptr, i32, i32 }
%struct.AlphaMergeContext = type { ptr, i32, [4 x i8], %struct.FFFrameSync }
%struct.FFFrameSync = type { ptr, ptr, i32, %struct.AVRational, i64, ptr, ptr, i32, i32, i8, i8, ptr, i32, i32, i32, i32 }
%struct.AVRational = type { i32, i32 }
%struct.AVFilterFormatsConfig = type { ptr, ptr, ptr, ptr, ptr }
%struct.AVFilterLink = type { ptr, ptr, ptr, ptr, i32, i32, i32, i32, %struct.AVRational, i32, i32, i32, %struct.AVChannelLayout, %struct.AVRational, ptr, i32, %struct.AVFilterFormatsConfig, %struct.AVFilterFormatsConfig }
%struct.AVChannelLayout = type { i32, i32, %union.anon.1, ptr }
%union.anon.1 = type { i64 }
%struct.FilterLink = type { %struct.AVFilterLink, ptr, i64, i64, i32, i32, i64, i64, i64, i64, %struct.AVRational, ptr }

@.str.5 = private unnamed_addr constant [50 x i8] c"Input frame sizes do not match (%dx%d vs %dx%d).\0A\00", align 1

; Function Attrs: inlinehint nounwind uwtable
define internal ptr @ff_filter_link(ptr noundef %0) #4 {
  %2 = alloca ptr, align 8
  store ptr %0, ptr %2, align 8, !tbaa !35
  %3 = load ptr, ptr %2, align 8, !tbaa !35
  ret ptr %3
}

; Function Attrs: nounwind uwtable
define internal i32 @config_output(ptr noundef %0) #0 {
  %2 = alloca i32, align 4
  %3 = alloca ptr, align 8
  %4 = alloca ptr, align 8
  %5 = alloca ptr, align 8
  %6 = alloca ptr, align 8
  %7 = alloca ptr, align 8
  %8 = alloca ptr, align 8
  %9 = alloca ptr, align 8
  %10 = alloca i32, align 4
  %11 = alloca i32, align 4
  store ptr %0, ptr %3, align 8, !tbaa !35
  call void @llvm.lifetime.start.p0(i64 8, ptr %4) #6
  %12 = load ptr, ptr %3, align 8, !tbaa !35
  %13 = call ptr @ff_filter_link(ptr noundef %12)
  store ptr %13, ptr %4, align 8, !tbaa !46
  call void @llvm.lifetime.start.p0(i64 8, ptr %5) #6
  %14 = load ptr, ptr %3, align 8, !tbaa !35
  %15 = getelementptr inbounds nuw %struct.AVFilterLink, ptr %14, i32 0, i32 0
  %16 = load ptr, ptr %15, align 8, !tbaa !48
  store ptr %16, ptr %5, align 8, !tbaa !4
  call void @llvm.lifetime.start.p0(i64 8, ptr %6) #6
  %17 = load ptr, ptr %5, align 8, !tbaa !4
  %18 = getelementptr inbounds nuw %struct.AVFilterContext, ptr %17, i32 0, i32 9
  %19 = load ptr, ptr %18, align 8, !tbaa !9
  store ptr %19, ptr %6, align 8, !tbaa !22
  call void @llvm.lifetime.start.p0(i64 8, ptr %7) #6
  %20 = load ptr, ptr %5, align 8, !tbaa !4
  %21 = getelementptr inbounds nuw %struct.AVFilterContext, ptr %20, i32 0, i32 4
  %22 = load ptr, ptr %21, align 8, !tbaa !49
  %23 = getelementptr inbounds ptr, ptr %22, i64 0
  %24 = load ptr, ptr %23, align 8, !tbaa !35
  store ptr %24, ptr %7, align 8, !tbaa !35
  call void @llvm.lifetime.start.p0(i64 8, ptr %8) #6
  %25 = load ptr, ptr %7, align 8, !tbaa !35
  %26 = call ptr @ff_filter_link(ptr noundef %25)
  store ptr %26, ptr %8, align 8, !tbaa !46
  call void @llvm.lifetime.start.p0(i64 8, ptr %9) #6
  %27 = load ptr, ptr %5, align 8, !tbaa !4
  %28 = getelementptr inbounds nuw %struct.AVFilterContext, ptr %27, i32 0, i32 4
  %29 = load ptr, ptr %28, align 8, !tbaa !49
  %30 = getelementptr inbounds ptr, ptr %29, i64 1
  %31 = load ptr, ptr %30, align 8, !tbaa !35
  store ptr %31, ptr %9, align 8, !tbaa !35
  call void @llvm.lifetime.start.p0(i64 4, ptr %10) #6
  %32 = load ptr, ptr %7, align 8, !tbaa !35
  %33 = getelementptr inbounds nuw %struct.AVFilterLink, ptr %32, i32 0, i32 6
  %34 = load i32, ptr %33, align 8, !tbaa !50
  %35 = load ptr, ptr %9, align 8, !tbaa !35
  %36 = getelementptr inbounds nuw %struct.AVFilterLink, ptr %35, i32 0, i32 6
  %37 = load i32, ptr %36, align 8, !tbaa !50
  %38 = icmp ne i32 %34, %37
  br i1 %38, label %47, label %39

39:                                               ; preds = %1
  %40 = load ptr, ptr %7, align 8, !tbaa !35
  %41 = getelementptr inbounds nuw %struct.AVFilterLink, ptr %40, i32 0, i32 7
  %42 = load i32, ptr %41, align 4, !tbaa !51
  %43 = load ptr, ptr %9, align 8, !tbaa !35
  %44 = getelementptr inbounds nuw %struct.AVFilterLink, ptr %43, i32 0, i32 7
  %45 = load i32, ptr %44, align 4, !tbaa !51
  %46 = icmp ne i32 %42, %45
  br i1 %46, label %47, label %61

47:                                               ; preds = %39, %1
  %48 = load ptr, ptr %5, align 8, !tbaa !4
  %49 = load ptr, ptr %7, align 8, !tbaa !35
  %50 = getelementptr inbounds nuw %struct.AVFilterLink, ptr %49, i32 0, i32 6
  %51 = load i32, ptr %50, align 8, !tbaa !50
  %52 = load ptr, ptr %7, align 8, !tbaa !35
  %53 = getelementptr inbounds nuw %struct.AVFilterLink, ptr %52, i32 0, i32 7
  %54 = load i32, ptr %53, align 4, !tbaa !51
  %55 = load ptr, ptr %9, align 8, !tbaa !35
  %56 = getelementptr inbounds nuw %struct.AVFilterLink, ptr %55, i32 0, i32 6
  %57 = load i32, ptr %56, align 8, !tbaa !50
  %58 = load ptr, ptr %9, align 8, !tbaa !35
  %59 = getelementptr inbounds nuw %struct.AVFilterLink, ptr %58, i32 0, i32 7
  %60 = load i32, ptr %59, align 4, !tbaa !51
  call void (ptr, i32, ptr, ...) @av_log(ptr noundef %48, i32 noundef 16, ptr noundef @.str.5, i32 noundef %51, i32 noundef %54, i32 noundef %57, i32 noundef %60)
  store i32 -22, ptr %2, align 4
  store i32 1, ptr %11, align 4
  br label %95

61:                                               ; preds = %39
  %62 = load ptr, ptr %6, align 8, !tbaa !22
  %63 = getelementptr inbounds nuw %struct.AlphaMergeContext, ptr %62, i32 0, i32 3
  %64 = load ptr, ptr %5, align 8, !tbaa !4
  %65 = call i32 @ff_framesync_init_dualinput(ptr noundef %63, ptr noundef %64)
  store i32 %65, ptr %10, align 4, !tbaa !34
  %66 = icmp slt i32 %65, 0
  br i1 %66, label %67, label %69

67:                                               ; preds = %61
  %68 = load i32, ptr %10, align 4, !tbaa !34
  store i32 %68, ptr %2, align 4
  store i32 1, ptr %11, align 4
  br label %95

69:                                               ; preds = %61
  %70 = load ptr, ptr %7, align 8, !tbaa !35
  %71 = getelementptr inbounds nuw %struct.AVFilterLink, ptr %70, i32 0, i32 6
  %72 = load i32, ptr %71, align 8, !tbaa !50
  %73 = load ptr, ptr %3, align 8, !tbaa !35
  %74 = getelementptr inbounds nuw %struct.AVFilterLink, ptr %73, i32 0, i32 6
  store i32 %72, ptr %74, align 8, !tbaa !50
  %75 = load ptr, ptr %7, align 8, !tbaa !35
  %76 = getelementptr inbounds nuw %struct.AVFilterLink, ptr %75, i32 0, i32 7
  %77 = load i32, ptr %76, align 4, !tbaa !51
  %78 = load ptr, ptr %3, align 8, !tbaa !35
  %79 = getelementptr inbounds nuw %struct.AVFilterLink, ptr %78, i32 0, i32 7
  store i32 %77, ptr %79, align 4, !tbaa !51
  %80 = load ptr, ptr %3, align 8, !tbaa !35
  %81 = getelementptr inbounds nuw %struct.AVFilterLink, ptr %80, i32 0, i32 13
  %82 = load ptr, ptr %7, align 8, !tbaa !35
  %83 = getelementptr inbounds nuw %struct.AVFilterLink, ptr %82, i32 0, i32 13
  call void @llvm.memcpy.p0.p0.i64(ptr align 8 %81, ptr align 8 %83, i64 8, i1 false), !tbaa.struct !52
  %84 = load ptr, ptr %3, align 8, !tbaa !35
  %85 = getelementptr inbounds nuw %struct.AVFilterLink, ptr %84, i32 0, i32 8
  %86 = load ptr, ptr %7, align 8, !tbaa !35
  %87 = getelementptr inbounds nuw %struct.AVFilterLink, ptr %86, i32 0, i32 8
  call void @llvm.memcpy.p0.p0.i64(ptr align 8 %85, ptr align 8 %87, i64 8, i1 false), !tbaa.struct !52
  %88 = load ptr, ptr %4, align 8, !tbaa !46
  %89 = getelementptr inbounds nuw %struct.FilterLink, ptr %88, i32 0, i32 10
  %90 = load ptr, ptr %8, align 8, !tbaa !46
  %91 = getelementptr inbounds nuw %struct.FilterLink, ptr %90, i32 0, i32 10
  call void @llvm.memcpy.p0.p0.i64(ptr align 8 %89, ptr align 8 %91, i64 8, i1 false), !tbaa.struct !52
  %92 = load ptr, ptr %6, align 8, !tbaa !22
  %93 = getelementptr inbounds nuw %struct.AlphaMergeContext, ptr %92, i32 0, i32 3
  %94 = call i32 @ff_framesync_configure(ptr noundef %93)
  store i32 %94, ptr %2, align 4
  store i32 1, ptr %11, align 4
  br label %95

95:                                               ; preds = %69, %67, %47
  call void @llvm.lifetime.end.p0(i64 4, ptr %10) #6
  call void @llvm.lifetime.end.p0(i64 8, ptr %9) #6
  call void @llvm.lifetime.end.p0(i64 8, ptr %8) #6
  call void @llvm.lifetime.end.p0(i64 8, ptr %7) #6
  call void @llvm.lifetime.end.p0(i64 8, ptr %6) #6
  call void @llvm.lifetime.end.p0(i64 8, ptr %5) #6
  call void @llvm.lifetime.end.p0(i64 8, ptr %4) #6
  %96 = load i32, ptr %2, align 4
  ret i32 %96
}