; Function Attrs: nounwind uwtable
define internal i32 @config_output(ptr noundef captures(none) %0) #0 {
  %2 = load ptr, ptr %0, align 8, !tbaa !38
  %3 = getelementptr inbounds nuw i8, ptr %2, i64 32
  %4 = load ptr, ptr %3, align 8, !tbaa !39
  %5 = load ptr, ptr %4, align 8, !tbaa !40
  %6 = getelementptr inbounds nuw i8, ptr %4, i64 8
  %7 = load ptr, ptr %6, align 8, !tbaa !40
  %8 = getelementptr inbounds nuw i8, ptr %5, i64 40
  %9 = load i32, ptr %8, align 8, !tbaa !42
  %10 = getelementptr inbounds nuw i8, ptr %7, i64 40
  %11 = load i32, ptr %10, align 8, !tbaa !42
  %.not = icmp eq i32 %9, %11
  %12 = getelementptr inbounds nuw i8, ptr %5, i64 44
  %13 = load i32, ptr %12, align 4, !tbaa !43
  %14 = getelementptr inbounds nuw i8, ptr %7, i64 44
  %15 = load i32, ptr %14, align 4, !tbaa !43
  %.not30 = icmp eq i32 %13, %15
  %or.cond = select i1 %.not, i1 %.not30, i1 false
  br i1 %or.cond, label %16, label %._crit_edge

._crit_edge:                                      ; preds = %1
  tail call void (ptr, i32, ptr, ...) @av_log(ptr noundef nonnull %2, i32 noundef 16, ptr noundef nonnull @.str.5, i32 noundef %9, i32 noundef %13, i32 noundef %11, i32 noundef %15) #7
  br label %37

16:                                               ; preds = %1
  %17 = getelementptr inbounds nuw i8, ptr %2, i64 72
  %18 = load ptr, ptr %17, align 8, !tbaa !4
  %19 = getelementptr inbounds nuw i8, ptr %18, i64 16
  %20 = tail call i32 @ff_framesync_init_dualinput(ptr noundef nonnull %19, ptr noundef nonnull %2) #7
  %21 = icmp slt i32 %20, 0
  br i1 %21, label %37, label %22

22:                                               ; preds = %16
  %23 = load i32, ptr %8, align 8, !tbaa !42
  %24 = getelementptr inbounds nuw i8, ptr %0, i64 40
  store i32 %23, ptr %24, align 8, !tbaa !42
  %25 = load i32, ptr %12, align 4, !tbaa !43
  %26 = getelementptr inbounds nuw i8, ptr %0, i64 44
  store i32 %25, ptr %26, align 4, !tbaa !43
  %27 = getelementptr inbounds nuw i8, ptr %0, i64 96
  %28 = getelementptr inbounds nuw i8, ptr %5, i64 96
  %29 = load i64, ptr %28, align 8
  store i64 %29, ptr %27, align 8
  %30 = getelementptr inbounds nuw i8, ptr %0, i64 48
  %31 = getelementptr inbounds nuw i8, ptr %5, i64 48
  %32 = load i64, ptr %31, align 8
  store i64 %32, ptr %30, align 8
  %33 = getelementptr inbounds nuw i8, ptr %0, i64 264
  %34 = getelementptr inbounds nuw i8, ptr %5, i64 264
  %35 = load i64, ptr %34, align 8
  store i64 %35, ptr %33, align 8
  %36 = tail call i32 @ff_framesync_configure(ptr noundef nonnull %19) #7
  br label %37

37:                                               ; preds = %16, %22, %._crit_edge
  %.0 = phi i32 [ -22, %._crit_edge ], [ %36, %22 ], [ %20, %16 ]
  ret i32 %.0
}